target datalayout = "e-m:e-p270:32:32-p271:32:32-p272:64:64-i64:64-i128:128-f80:128-n8:16:32:64-S128"
target triple = "x86_64-pc-linux-gnu"

%struct._zend_llist = type { ptr, ptr, i64, i64, ptr, i8, ptr }
%struct._zend_llist_element = type { ptr, ptr, [1 x i8] }

; Function Attrs: nounwind uwtable
define void @zend_llist_sort(ptr noundef %0, ptr noundef %1) #0 {
  %3 = alloca ptr, align 8
  %4 = alloca ptr, align 8
  %5 = alloca i64, align 8
  %6 = alloca ptr, align 8
  %7 = alloca ptr, align 8
  %8 = alloca ptr, align 8
  store ptr %0, ptr %3, align 8
  store ptr %1, ptr %4, align 8
  %9 = load ptr, ptr %3, align 8
  %10 = getelementptr inbounds %struct._zend_llist, ptr %9, i32 0, i32 2
  %11 = load i64, ptr %10, align 8
  %12 = icmp eq i64 %11, 0
  br i1 %12, label %13, label %14

13:                                               ; preds = %2
  br label %424

14:                                               ; preds = %2
  %15 = load ptr, ptr %3, align 8
  %16 = getelementptr inbounds %struct._zend_llist, ptr %15, i32 0, i32 2
  %17 = load i64, ptr %16, align 8
  %18 = mul i64 %17, 8
  %19 = call i1 @llvm.is.constant.i64(i64 %18)
  br i1 %19, label %20, label %340

20:                                               ; preds = %14
  %21 = load ptr, ptr %3, align 8
  %22 = getelementptr inbounds %struct._zend_llist, ptr %21, i32 0, i32 2
  %23 = load i64, ptr %22, align 8
  %24 = mul i64 %23, 8
  %25 = icmp ule i64 %24, 8
  br i1 %25, label %26, label %28

26:                                               ; preds = %20
  %27 = call noalias ptr @_emalloc_8()
  br label %338

28:                                               ; preds = %20
  %29 = load ptr, ptr %3, align 8
  %30 = getelementptr inbounds %struct._zend_llist, ptr %29, i32 0, i32 2
  %31 = load i64, ptr %30, align 8
  %32 = mul i64 %31, 8
  %33 = icmp ule i64 %32, 16
  br i1 %33, label %34, label %36

34:                                               ; preds = %28
  %35 = call noalias ptr @_emalloc_16()
  br label %336

36:                                               ; preds = %28
  %37 = load ptr, ptr %3, align 8
  %38 = getelementptr inbounds %struct._zend_llist, ptr %37, i32 0, i32 2
  %39 = load i64, ptr %38, align 8
  %40 = mul i64 %39, 8
  %41 = icmp ule i64 %40, 24
  br i1 %41, label %42, label %44

42:                                               ; preds = %36
  %43 = call noalias ptr @_emalloc_24()
  br label %334

44:                                               ; preds = %36
  %45 = load ptr, ptr %3, align 8
  %46 = getelementptr inbounds %struct._zend_llist, ptr %45, i32 0, i32 2
  %47 = load i64, ptr %46, align 8
  %48 = mul i64 %47, 8
  %49 = icmp ule i64 %48, 32
  br i1 %49, label %50, label %52

50:                                               ; preds = %44
  %51 = call noalias ptr @_emalloc_32()
  br label %332

52:                                               ; preds = %44
  %53 = load ptr, ptr %3, align 8
  %54 = getelementptr inbounds %struct._zend_llist, ptr %53, i32 0, i32 2
  %55 = load i64, ptr %54, align 8
  %56 = mul i64 %55, 8
  %57 = icmp ule i64 %56, 40
  br i1 %57, label %58, label %60

58:                                               ; preds = %52
  %59 = call noalias ptr @_emalloc_40()
  br label %330

60:                                               ; preds = %52
  %61 = load ptr, ptr %3, align 8
  %62 = getelementptr inbounds %struct._zend_llist, ptr %61, i32 0, i32 2
  %63 = load i64, ptr %62, align 8
  %64 = mul i64 %63, 8
  %65 = icmp ule i64 %64, 48
  br i1 %65, label %66, label %68

66:                                               ; preds = %60
  %67 = call noalias ptr @_emalloc_48()
  br label %328

68:                                               ; preds = %60
  %69 = load ptr, ptr %3, align 8
  %70 = getelementptr inbounds %struct._zend_llist, ptr %69, i32 0, i32 2
  %71 = load i64, ptr %70, align 8
  %72 = mul i64 %71, 8
  %73 = icmp ule i64 %72, 56
  br i1 %73, label %74, label %76

74:                                               ; preds = %68
  %75 = call noalias ptr @_emalloc_56()
  br label %326

76:                                               ; preds = %68
  %77 = load ptr, ptr %3, align 8
  %78 = getelementptr inbounds %struct._zend_llist, ptr %77, i32 0, i32 2
  %79 = load i64, ptr %78, align 8
  %80 = mul i64 %79, 8
  %81 = icmp ule i64 %80, 64
  br i1 %81, label %82, label %84

82:                                               ; preds = %76
  %83 = call noalias ptr @_emalloc_64()
  br label %324

84:                                               ; preds = %76
  %85 = load ptr, ptr %3, align 8
  %86 = getelementptr inbounds %struct._zend_llist, ptr %85, i32 0, i32 2
  %87 = load i64, ptr %86, align 8
  %88 = mul i64 %87, 8
  %89 = icmp ule i64 %88, 80
  br i1 %89, label %90, label %92

90:                                               ; preds = %84
  %91 = call noalias ptr @_emalloc_80()
  br label %322

92:                                               ; preds = %84
  %93 = load ptr, ptr %3, align 8
  %94 = getelementptr inbounds %struct._zend_llist, ptr %93, i32 0, i32 2
  %95 = load i64, ptr %94, align 8
  %96 = mul i64 %95, 8
  %97 = icmp ule i64 %96, 96
  br i1 %97, label %98, label %100

98:                                               ; preds = %92
  %99 = call noalias ptr @_emalloc_96()
  br label %320

100:                                              ; preds = %92
  %101 = load ptr, ptr %3, align 8
  %102 = getelementptr inbounds %struct._zend_llist, ptr %101, i32 0, i32 2
  %103 = load i64, ptr %102, align 8
  %104 = mul i64 %103, 8
  %105 = icmp ule i64 %104, 112
  br i1 %105, label %106, label %108

106:                                              ; preds = %100
  %107 = call noalias ptr @_emalloc_112()
  br label %318

108:                                              ; preds = %100
  %109 = load ptr, ptr %3, align 8
  %110 = getelementptr inbounds %struct._zend_llist, ptr %109, i32 0, i32 2
  %111 = load i64, ptr %110, align 8
  %112 = mul i64 %111, 8
  %113 = icmp ule i64 %112, 128
  br i1 %113, label %114, label %116

114:                                              ; preds = %108
  %115 = call noalias ptr @_emalloc_128()
  br label %316

116:                                              ; preds = %108
  %117 = load ptr, ptr %3, align 8
  %118 = getelementptr inbounds %struct._zend_llist, ptr %117, i32 0, i32 2
  %119 = load i64, ptr %118, align 8
  %120 = mul i64 %119, 8
  %121 = icmp ule i64 %120, 160
  br i1 %121, label %122, label %124

122:                                              ; preds = %116
  %123 = call noalias ptr @_emalloc_160()
  br label %314

124:                                              ; preds = %116
  %125 = load ptr, ptr %3, align 8
  %126 = getelementptr inbounds %struct._zend_llist, ptr %125, i32 0, i32 2
  %127 = load i64, ptr %126, align 8
  %128 = mul i64 %127, 8
  %129 = icmp ule i64 %128, 192
  br i1 %129, label %130, label %132

130:                                              ; preds = %124
  %131 = call noalias ptr @_emalloc_192()
  br label %312

132:                                              ; preds = %124
  %133 = load ptr, ptr %3, align 8
  %134 = getelementptr inbounds %struct._zend_llist, ptr %133, i32 0, i32 2
  %135 = load i64, ptr %134, align 8
  %136 = mul i64 %135, 8
  %137 = icmp ule i64 %136, 224
  br i1 %137, label %138, label %140

138:                                              ; preds = %132
  %139 = call noalias ptr @_emalloc_224()
  br label %310

140:                                              ; preds = %132
  %141 = load ptr, ptr %3, align 8
  %142 = getelementptr inbounds %struct._zend_llist, ptr %141, i32 0, i32 2
  %143 = load i64, ptr %142, align 8
  %144 = mul i64 %143, 8
  %145 = icmp ule i64 %144, 256
  br i1 %145, label %146, label %148

146:                                              ; preds = %140
  %147 = call noalias ptr @_emalloc_256()
  br label %308

148:                                              ; preds = %140
  %149 = load ptr, ptr %3, align 8
  %150 = getelementptr inbounds %struct._zend_llist, ptr %149, i32 0, i32 2
  %151 = load i64, ptr %150, align 8
  %152 = mul i64 %151, 8
  %153 = icmp ule i64 %152, 320
  br i1 %153, label %154, label %156

154:                                              ; preds = %148
  %155 = call noalias ptr @_emalloc_320()
  br label %306

156:                                              ; preds = %148
  %157 = load ptr, ptr %3, align 8
  %158 = getelementptr inbounds %struct._zend_llist, ptr %157, i32 0, i32 2
  %159 = load i64, ptr %158, align 8
  %160 = mul i64 %159, 8
  %161 = icmp ule i64 %160, 384
  br i1 %161, label %162, label %164

162:                                              ; preds = %156
  %163 = call noalias ptr @_emalloc_384()
  br label %304

164:                                              ; preds = %156
  %165 = load ptr, ptr %3, align 8
  %166 = getelementptr inbounds %struct._zend_llist, ptr %165, i32 0, i32 2
  %167 = load i64, ptr %166, align 8
  %168 = mul i64 %167, 8
  %169 = icmp ule i64 %168, 448
  br i1 %169, label %170, label %172

170:                                              ; preds = %164
  %171 = call noalias ptr @_emalloc_448()
  br label %302

172:                                              ; preds = %164
  %173 = load ptr, ptr %3, align 8
  %174 = getelementptr inbounds %struct._zend_llist, ptr %173, i32 0, i32 2
  %175 = load i64, ptr %174, align 8
  %176 = mul i64 %175, 8
  %177 = icmp ule i64 %176, 512
  br i1 %177, label %178, label %180

178:                                              ; preds = %172
  %179 = call noalias ptr @_emalloc_512()
  br label %300

180:                                              ; preds = %172
  %181 = load ptr, ptr %3, align 8
  %182 = getelementptr inbounds %struct._zend_llist, ptr %181, i32 0, i32 2
  %183 = load i64, ptr %182, align 8
  %184 = mul i64 %183, 8
  %185 = icmp ule i64 %184, 640
  br i1 %185, label %186, label %188

186:                                              ; preds = %180
  %187 = call noalias ptr @_emalloc_640()
  br label %298

188:                                              ; preds = %180
  %189 = load ptr, ptr %3, align 8
  %190 = getelementptr inbounds %struct._zend_llist, ptr %189, i32 0, i32 2
  %191 = load i64, ptr %190, align 8
  %192 = mul i64 %191, 8
  %193 = icmp ule i64 %192, 768
  br i1 %193, label %194, label %196

194:                                              ; preds = %188
  %195 = call noalias ptr @_emalloc_768()
  br label %296

196:                                              ; preds = %188
  %197 = load ptr, ptr %3, align 8
  %198 = getelementptr inbounds %struct._zend_llist, ptr %197, i32 0, i32 2
  %199 = load i64, ptr %198, align 8
  %200 = mul i64 %199, 8
  %201 = icmp ule i64 %200, 896
  br i1 %201, label %202, label %204

202:                                              ; preds = %196
  %203 = call noalias ptr @_emalloc_896()
  br label %294

204:                                              ; preds = %196
  %205 = load ptr, ptr %3, align 8
  %206 = getelementptr inbounds %struct._zend_llist, ptr %205, i32 0, i32 2
  %207 = load i64, ptr %206, align 8
  %208 = mul i64 %207, 8
  %209 = icmp ule i64 %208, 1024
  br i1 %209, label %210, label %212

210:                                              ; preds = %204
  %211 = call noalias ptr @_emalloc_1024()
  br label %292

212:                                              ; preds = %204
  %213 = load ptr, ptr %3, align 8
  %214 = getelementptr inbounds %struct._zend_llist, ptr %213, i32 0, i32 2
  %215 = load i64, ptr %214, align 8
  %216 = mul i64 %215, 8
  %217 = icmp ule i64 %216, 1280
  br i1 %217, label %218, label %220

218:                                              ; preds = %212
  %219 = call noalias ptr @_emalloc_1280()
  br label %290

220:                                              ; preds = %212
  %221 = load ptr, ptr %3, align 8
  %222 = getelementptr inbounds %struct._zend_llist, ptr %221, i32 0, i32 2
  %223 = load i64, ptr %222, align 8
  %224 = mul i64 %223, 8
  %225 = icmp ule i64 %224, 1536
  br i1 %225, label %226, label %228

226:                                              ; preds = %220
  %227 = call noalias ptr @_emalloc_1536()
  br label %288

228:                                              ; preds = %220
  %229 = load ptr, ptr %3, align 8
  %230 = getelementptr inbounds %struct._zend_llist, ptr %229, i32 0, i32 2
  %231 = load i64, ptr %230, align 8
  %232 = mul i64 %231, 8
  %233 = icmp ule i64 %232, 1792
  br i1 %233, label %234, label %236

234:                                              ; preds = %228
  %235 = call noalias ptr @_emalloc_1792()
  br label %286

236:                                              ; preds = %228
  %237 = load ptr, ptr %3, align 8
  %238 = getelementptr inbounds %struct._zend_llist, ptr %237, i32 0, i32 2
  %239 = load i64, ptr %238, align 8
  %240 = mul i64 %239, 8
  %241 = icmp ule i64 %240, 2048
  br i1 %241, label %242, label %244

242:                                              ; preds = %236
  %243 = call noalias ptr @_emalloc_2048()
  br label %284

244:                                              ; preds = %236
  %245 = load ptr, ptr %3, align 8
  %246 = getelementptr inbounds %struct._zend_llist, ptr %245, i32 0, i32 2
  %247 = load i64, ptr %246, align 8
  %248 = mul i64 %247, 8
  %249 = icmp ule i64 %248, 2560
  br i1 %249, label %250, label %252

250:                                              ; preds = %244
  %251 = call noalias ptr @_emalloc_2560()
  br label %282

252:                                              ; preds = %244
  %253 = load ptr, ptr %3, align 8
  %254 = getelementptr inbounds %struct._zend_llist, ptr %253, i32 0, i32 2
  %255 = load i64, ptr %254, align 8
  %256 = mul i64 %255, 8
  %257 = icmp ule i64 %256, 3072
  br i1 %257, label %258, label %260

258:                                              ; preds = %252
  %259 = call noalias ptr @_emalloc_3072()
  br label %280

260:                                              ; preds = %252
  %261 = load ptr, ptr %3, align 8
  %262 = getelementptr inbounds %struct._zend_llist, ptr %261, i32 0, i32 2
  %263 = load i64, ptr %262, align 8
  %264 = mul i64 %263, 8
  %265 = icmp ule i64 %264, 2093056
  br i1 %265, label %266, label %272

266:                                              ; preds = %260
  %267 = load ptr, ptr %3, align 8
  %268 = getelementptr inbounds %struct._zend_llist, ptr %267, i32 0, i32 2
  %269 = load i64, ptr %268, align 8
  %270 = mul i64 %269, 8
  %271 = call noalias ptr @_emalloc_large(i64 noundef %270) #7
  br label %278

272:                                              ; preds = %260
  %273 = load ptr, ptr %3, align 8
  %274 = getelementptr inbounds %struct._zend_llist, ptr %273, i32 0, i32 2
  %275 = load i64, ptr %274, align 8
  %276 = mul i64 %275, 8
  %277 = call noalias ptr @_emalloc_huge(i64 noundef %276) #7
  br label %278

278:                                              ; preds = %272, %266
  %279 = phi ptr [ %271, %266 ], [ %277, %272 ]
  br label %280

280:                                              ; preds = %278, %258
  %281 = phi ptr [ %259, %258 ], [ %279, %278 ]
  br label %282

282:                                              ; preds = %280, %250
  %283 = phi ptr [ %251, %250 ], [ %281, %280 ]
  br label %284

284:                                              ; preds = %282, %242
  %285 = phi ptr [ %243, %242 ], [ %283, %282 ]
  br label %286

286:                                              ; preds = %284, %234
  %287 = phi ptr [ %235, %234 ], [ %285, %284 ]
  br label %288

288:                                              ; preds = %286, %226
  %289 = phi ptr [ %227, %226 ], [ %287, %286 ]
  br label %290

290:                                              ; preds = %288, %218
  %291 = phi ptr [ %219, %218 ], [ %289, %288 ]
  br label %292

292:                                              ; preds = %290, %210
  %293 = phi ptr [ %211, %210 ], [ %291, %290 ]
  br label %294

294:                                              ; preds = %292, %202
  %295 = phi ptr [ %203, %202 ], [ %293, %292 ]
  br label %296

296:                                              ; preds = %294, %194
  %297 = phi ptr [ %195, %194 ], [ %295, %294 ]
  br label %298

298:                                              ; preds = %296, %186
  %299 = phi ptr [ %187, %186 ], [ %297, %296 ]
  br label %300

300:                                              ; preds = %298, %178
  %301 = phi ptr [ %179, %178 ], [ %299, %298 ]
  br label %302

302:                                              ; preds = %300, %170
  %303 = phi ptr [ %171, %170 ], [ %301, %300 ]
  br label %304

304:                                              ; preds = %302, %162
  %305 = phi ptr [ %163, %162 ], [ %303, %302 ]
  br label %306

306:                                              ; preds = %304, %154
  %307 = phi ptr [ %155, %154 ], [ %305, %304 ]
  br label %308

308:                                              ; preds = %306, %146
  %309 = phi ptr [ %147, %146 ], [ %307, %306 ]
  br label %310

310:                                              ; preds = %308, %138
  %311 = phi ptr [ %139, %138 ], [ %309, %308 ]
  br label %312

312:                                              ; preds = %310, %130
  %313 = phi ptr [ %131, %130 ], [ %311, %310 ]
  br label %314

314:                                              ; preds = %312, %122
  %315 = phi ptr [ %123, %122 ], [ %313, %312 ]
  br label %316

316:                                              ; preds = %314, %114
  %317 = phi ptr [ %115, %114 ], [ %315, %314 ]
  br label %318

318:                                              ; preds = %316, %106
  %319 = phi ptr [ %107, %106 ], [ %317, %316 ]
  br label %320

320:                                              ; preds = %318, %98
  %321 = phi ptr [ %99, %98 ], [ %319, %318 ]
  br label %322

322:                                              ; preds = %320, %90
  %323 = phi ptr [ %91, %90 ], [ %321, %320 ]
  br label %324

324:                                              ; preds = %322, %82
  %325 = phi ptr [ %83, %82 ], [ %323, %322 ]
  br label %326

326:                                              ; preds = %324, %74
  %327 = phi ptr [ %75, %74 ], [ %325, %324 ]
  br label %328

328:                                              ; preds = %326, %66
  %329 = phi ptr [ %67, %66 ], [ %327, %326 ]
  br label %330

330:                                              ; preds = %328, %58
  %331 = phi ptr [ %59, %58 ], [ %329, %328 ]
  br label %332

332:                                              ; preds = %330, %50
  %333 = phi ptr [ %51, %50 ], [ %331, %330 ]
  br label %334

334:                                              ; preds = %332, %42
  %335 = phi ptr [ %43, %42 ], [ %333, %332 ]
  br label %336

336:                                              ; preds = %334, %34
  %337 = phi ptr [ %35, %34 ], [ %335, %334 ]
  br label %338

338:                                              ; preds = %336, %26
  %339 = phi ptr [ %27, %26 ], [ %337, %336 ]
  br label %346

340:                                              ; preds = %14
  %341 = load ptr, ptr %3, align 8
  %342 = getelementptr inbounds %struct._zend_llist, ptr %341, i32 0, i32 2
  %343 = load i64, ptr %342, align 8
  %344 = mul i64 %343, 8
  %345 = call noalias ptr @_emalloc(i64 noundef %344) #7
  br label %346

346:                                              ; preds = %340, %338
  %347 = phi ptr [ %339, %338 ], [ %345, %340 ]
  store ptr %347, ptr %6, align 8
  %348 = load ptr, ptr %6, align 8
  %349 = getelementptr inbounds ptr, ptr %348, i64 0
  store ptr %349, ptr %8, align 8
  %350 = load ptr, ptr %3, align 8
  %351 = getelementptr inbounds %struct._zend_llist, ptr %350, i32 0, i32 0
  %352 = load ptr, ptr %351, align 8
  store ptr %352, ptr %7, align 8
  br label %353

353:                                              ; preds = %360, %346
  %354 = load ptr, ptr %7, align 8
  %355 = icmp ne ptr %354, null
  br i1 %355, label %356, label %364

356:                                              ; preds = %353
  %357 = load ptr, ptr %7, align 8
  %358 = load ptr, ptr %8, align 8
  %359 = getelementptr inbounds ptr, ptr %358, i32 1
  store ptr %359, ptr %8, align 8
  store ptr %357, ptr %358, align 8
  br label %360

360:                                              ; preds = %356
  %361 = load ptr, ptr %7, align 8
  %362 = getelementptr inbounds %struct._zend_llist_element, ptr %361, i32 0, i32 0
  %363 = load ptr, ptr %362, align 8
  store ptr %363, ptr %7, align 8
  br label %353

364:                                              ; preds = %353
  %365 = load ptr, ptr %6, align 8
  %366 = load ptr, ptr %3, align 8
  %367 = getelementptr inbounds %struct._zend_llist, ptr %366, i32 0, i32 2
  %368 = load i64, ptr %367, align 8
  %369 = load ptr, ptr %4, align 8
  call void @zend_sort(ptr noundef %365, i64 noundef %368, i64 noundef 8, ptr noundef %369, ptr noundef @zend_llist_swap)
  %370 = load ptr, ptr %6, align 8
  %371 = getelementptr inbounds ptr, ptr %370, i64 0
  %372 = load ptr, ptr %371, align 8
  %373 = load ptr, ptr %3, align 8
  %374 = getelementptr inbounds %struct._zend_llist, ptr %373, i32 0, i32 0
  store ptr %372, ptr %374, align 8
  %375 = load ptr, ptr %6, align 8
  %376 = getelementptr inbounds ptr, ptr %375, i64 0
  %377 = load ptr, ptr %376, align 8
  %378 = getelementptr inbounds %struct._zend_llist_element, ptr %377, i32 0, i32 1
  store ptr null, ptr %378, align 8
  store i64 1, ptr %5, align 8
  br label %379

379:                                              ; preds = %406, %364
  %380 = load i64, ptr %5, align 8
  %381 = load ptr, ptr %3, align 8
  %382 = getelementptr inbounds %struct._zend_llist, ptr %381, i32 0, i32 2
  %383 = load i64, ptr %382, align 8
  %384 = icmp ult i64 %380, %383
  br i1 %384, label %385, label %409

385:                                              ; preds = %379
  %386 = load ptr, ptr %6, align 8
  %387 = load i64, ptr %5, align 8
  %388 = sub i64 %387, 1
  %389 = getelementptr inbounds ptr, ptr %386, i64 %388
  %390 = load ptr, ptr %389, align 8
  %391 = load ptr, ptr %6, align 8
  %392 = load i64, ptr %5, align 8
  %393 = getelementptr inbounds ptr, ptr %391, i64 %392
  %394 = load ptr, ptr %393, align 8
  %395 = getelementptr inbounds %struct._zend_llist_element, ptr %394, i32 0, i32 1
  store ptr %390, ptr %395, align 8
  %396 = load ptr, ptr %6, align 8
  %397 = load i64, ptr %5, align 8
  %398 = getelementptr inbounds ptr, ptr %396, i64 %397
  %399 = load ptr, ptr %398, align 8
  %400 = load ptr, ptr %6, align 8
  %401 = load i64, ptr %5, align 8
  %402 = sub i64 %401, 1
  %403 = getelementptr inbounds ptr, ptr %400, i64 %402
  %404 = load ptr, ptr %403, align 8
  %405 = getelementptr inbounds %struct._zend_llist_element, ptr %404, i32 0, i32 0
  store ptr %399, ptr %405, align 8
  br label %406

406:                                              ; preds = %385
  %407 = load i64, ptr %5, align 8
  %408 = add i64 %407, 1
  store i64 %408, ptr %5, align 8
  br label %379

409:                                              ; preds = %379
  %410 = load ptr, ptr %6, align 8
  %411 = load i64, ptr %5, align 8
  %412 = sub i64 %411, 1
  %413 = getelementptr inbounds ptr, ptr %410, i64 %412
  %414 = load ptr, ptr %413, align 8
  %415 = getelementptr inbounds %struct._zend_llist_element, ptr %414, i32 0, i32 0
  store ptr null, ptr %415, align 8
  %416 = load ptr, ptr %6, align 8
  %417 = load i64, ptr %5, align 8
  %418 = sub i64 %417, 1
  %419 = getelementptr inbounds ptr, ptr %416, i64 %418
  %420 = load ptr, ptr %419, align 8
  %421 = load ptr, ptr %3, align 8
  %422 = getelementptr inbounds %struct._zend_llist, ptr %421, i32 0, i32 1
  store ptr %420, ptr %422, align 8
  %423 = load ptr, ptr %6, align 8
  call void @_efree(ptr noundef %423)
  br label %424

424:                                              ; preds = %409, %13
  ret void
}