; Function Attrs: nounwind uwtable
define void @zend_llist_sort(ptr nocapture noundef %0, ptr noundef %1) local_unnamed_addr #1 {
  %3 = getelementptr inbounds i8, ptr %0, i64 16
  %4 = load i64, ptr %3, align 8
  %5 = icmp eq i64 %4, 0
  br i1 %5, label %28, label %6

6:                                                ; preds = %2
  %7 = shl i64 %4, 3
  %8 = tail call noalias ptr @_emalloc(i64 noundef %7) #12
  %.06468 = load ptr, ptr %0, align 8
  %.not69 = icmp eq ptr %.06468, null
  br i1 %.not69, label %._crit_edge, label %.lr.ph

.lr.ph:                                           ; preds = %6, %.lr.ph
  %.06471 = phi ptr [ %.064, %.lr.ph ], [ %.06468, %6 ]
  %.070 = phi ptr [ %9, %.lr.ph ], [ %8, %6 ]
  %9 = getelementptr inbounds i8, ptr %.070, i64 8
  store ptr %.06471, ptr %.070, align 8
  %.064 = load ptr, ptr %.06471, align 8
  %.not = icmp eq ptr %.064, null
  br i1 %.not, label %._crit_edge, label %.lr.ph

._crit_edge:                                      ; preds = %.lr.ph, %6
  %10 = load i64, ptr %3, align 8
  tail call void @zend_sort(ptr noundef %8, i64 noundef %10, i64 noundef 8, ptr noundef %1, ptr noundef nonnull @zend_llist_swap) #13
  %11 = load ptr, ptr %8, align 8
  store ptr %11, ptr %0, align 8
  %12 = getelementptr inbounds i8, ptr %11, i64 8
  store ptr null, ptr %12, align 8
  %13 = load i64, ptr %3, align 8
  %14 = icmp ugt i64 %13, 1
  %.pre = load ptr, ptr %8, align 8
  br i1 %14, label %.lr.ph74.preheader, label %._crit_edge75

.lr.ph74.preheader:                               ; preds = %._crit_edge
  %invariant.gep = getelementptr i8, ptr %8, i64 -8
  br label %.lr.ph74

.lr.ph74:                                         ; preds = %.lr.ph74.preheader, %.lr.ph74
  %15 = phi ptr [ %19, %.lr.ph74 ], [ %.pre, %.lr.ph74.preheader ]
  %.06572 = phi i64 [ %21, %.lr.ph74 ], [ 1, %.lr.ph74.preheader ]
  %gep = getelementptr ptr, ptr %invariant.gep, i64 %.06572
  %16 = getelementptr inbounds ptr, ptr %8, i64 %.06572
  %17 = load ptr, ptr %16, align 8
  %18 = getelementptr inbounds i8, ptr %17, i64 8
  store ptr %15, ptr %18, align 8
  %19 = load ptr, ptr %16, align 8
  %20 = load ptr, ptr %gep, align 8
  store ptr %19, ptr %20, align 8
  %21 = add nuw i64 %.06572, 1
  %22 = load i64, ptr %3, align 8
  %23 = icmp ult i64 %21, %22
  br i1 %23, label %.lr.ph74, label %._crit_edge75

._crit_edge75:                                    ; preds = %.lr.ph74, %._crit_edge
  %24 = phi ptr [ %.pre, %._crit_edge ], [ %19, %.lr.ph74 ]
  %.065.lcssa = phi i64 [ 0, %._crit_edge ], [ %.06572, %.lr.ph74 ]
  %25 = getelementptr inbounds ptr, ptr %8, i64 %.065.lcssa
  store ptr null, ptr %24, align 8
  %26 = load ptr, ptr %25, align 8
  %27 = getelementptr inbounds i8, ptr %0, i64 8
  store ptr %26, ptr %27, align 8
  tail call void @_efree(ptr noundef nonnull %8) #13
  br label %28

28:                                               ; preds = %2, %._crit_edge75
  ret void
}